target datalayout = "e-m:e-p270:32:32-p271:32:32-p272:64:64-i64:64-i128:128-f80:128-n8:16:32:64-S128"
target triple = "x86_64-pc-linux-gnu"

; Function Attrs: nounwind uwtable
define i32 @ClassicalGS(ptr noundef %0, ptr noundef %1, i32 noundef %2, i32 noundef %3, ptr noundef %4, ptr noundef %5, ptr noundef %6) #0 {
  %8 = alloca ptr, align 8
  %9 = alloca ptr, align 8
  %10 = alloca i32, align 4
  %11 = alloca i32, align 4
  %12 = alloca ptr, align 8
  %13 = alloca ptr, align 8
  %14 = alloca ptr, align 8
  %15 = alloca i32, align 4
  %16 = alloca i32, align 4
  %17 = alloca i32, align 4
  %18 = alloca double, align 8
  store ptr %0, ptr %8, align 8, !tbaa !3
  store ptr %1, ptr %9, align 8, !tbaa !8
  store i32 %2, ptr %10, align 4, !tbaa !10
  store i32 %3, ptr %11, align 4, !tbaa !10
  store ptr %4, ptr %12, align 8, !tbaa !12
  store ptr %5, ptr %13, align 8, !tbaa !14
  store ptr %6, ptr %14, align 8, !tbaa !12
  call void @llvm.lifetime.start.p0(i64 4, ptr %15) #4
  call void @llvm.lifetime.start.p0(i64 4, ptr %16) #4
  call void @llvm.lifetime.start.p0(i64 4, ptr %17) #4
  call void @llvm.lifetime.start.p0(i64 8, ptr %18) #4
  %19 = load i32, ptr %10, align 4, !tbaa !10
  %20 = sub nsw i32 %19, 1
  store i32 %20, ptr %16, align 4, !tbaa !10
  %21 = load ptr, ptr %8, align 8, !tbaa !3
  %22 = load i32, ptr %10, align 4, !tbaa !10
  %23 = sext i32 %22 to i64
  %24 = getelementptr inbounds ptr, ptr %21, i64 %23
  %25 = load ptr, ptr %24, align 8, !tbaa !14
  %26 = load ptr, ptr %8, align 8, !tbaa !3
  %27 = load i32, ptr %10, align 4, !tbaa !10
  %28 = sext i32 %27 to i64
  %29 = getelementptr inbounds ptr, ptr %26, i64 %28
  %30 = load ptr, ptr %29, align 8, !tbaa !14
  %31 = call double @N_VDotProd(ptr noundef %25, ptr noundef %30)
  %32 = call double @SUNRsqrt(double noundef %31)
  store double %32, ptr %18, align 8, !tbaa !16
  %33 = load i32, ptr %10, align 4, !tbaa !10
  %34 = load i32, ptr %11, align 4, !tbaa !10
  %35 = sub nsw i32 %33, %34
  %36 = icmp sgt i32 %35, 0
  br i1 %36, label %37, label %41

37:                                               ; preds = %7
  %38 = load i32, ptr %10, align 4, !tbaa !10
  %39 = load i32, ptr %11, align 4, !tbaa !10
  %40 = sub nsw i32 %38, %39
  br label %42

41:                                               ; preds = %7
  br label %42

42:                                               ; preds = %41, %37
  %43 = phi i32 [ %40, %37 ], [ 0, %41 ]
  store i32 %43, ptr %17, align 4, !tbaa !10
  %44 = load i32, ptr %17, align 4, !tbaa !10
  store i32 %44, ptr %15, align 4, !tbaa !10
  br label %45

45:                                               ; preds = %69, %42
  %46 = load i32, ptr %15, align 4, !tbaa !10
  %47 = load i32, ptr %10, align 4, !tbaa !10
  %48 = icmp slt i32 %46, %47
  br i1 %48, label %49, label %72

49:                                               ; preds = %45
  %50 = load ptr, ptr %8, align 8, !tbaa !3
  %51 = load i32, ptr %15, align 4, !tbaa !10
  %52 = sext i32 %51 to i64
  %53 = getelementptr inbounds ptr, ptr %50, i64 %52
  %54 = load ptr, ptr %53, align 8, !tbaa !14
  %55 = load ptr, ptr %8, align 8, !tbaa !3
  %56 = load i32, ptr %10, align 4, !tbaa !10
  %57 = sext i32 %56 to i64
  %58 = getelementptr inbounds ptr, ptr %55, i64 %57
  %59 = load ptr, ptr %58, align 8, !tbaa !14
  %60 = call double @N_VDotProd(ptr noundef %54, ptr noundef %59)
  %61 = load ptr, ptr %9, align 8, !tbaa !8
  %62 = load i32, ptr %15, align 4, !tbaa !10
  %63 = sext i32 %62 to i64
  %64 = getelementptr inbounds ptr, ptr %61, i64 %63
  %65 = load ptr, ptr %64, align 8, !tbaa !12
  %66 = load i32, ptr %16, align 4, !tbaa !10
  %67 = sext i32 %66 to i64
  %68 = getelementptr inbounds double, ptr %65, i64 %67
  store double %60, ptr %68, align 8, !tbaa !16
  br label %69

69:                                               ; preds = %49
  %70 = load i32, ptr %15, align 4, !tbaa !10
  %71 = add nsw i32 %70, 1
  store i32 %71, ptr %15, align 4, !tbaa !10
  br label %45, !llvm.loop !21

72:                                               ; preds = %45
  %73 = load i32, ptr %17, align 4, !tbaa !10
  store i32 %73, ptr %15, align 4, !tbaa !10
  br label %74

74:                                               ; preds = %104, %72
  %75 = load i32, ptr %15, align 4, !tbaa !10
  %76 = load i32, ptr %10, align 4, !tbaa !10
  %77 = icmp slt i32 %75, %76
  br i1 %77, label %78, label %107

78:                                               ; preds = %74
  %79 = load ptr, ptr %8, align 8, !tbaa !3
  %80 = load i32, ptr %10, align 4, !tbaa !10
  %81 = sext i32 %80 to i64
  %82 = getelementptr inbounds ptr, ptr %79, i64 %81
  %83 = load ptr, ptr %82, align 8, !tbaa !14
  %84 = load ptr, ptr %9, align 8, !tbaa !8
  %85 = load i32, ptr %15, align 4, !tbaa !10
  %86 = sext i32 %85 to i64
  %87 = getelementptr inbounds ptr, ptr %84, i64 %86
  %88 = load ptr, ptr %87, align 8, !tbaa !12
  %89 = load i32, ptr %16, align 4, !tbaa !10
  %90 = sext i32 %89 to i64
  %91 = getelementptr inbounds double, ptr %88, i64 %90
  %92 = load double, ptr %91, align 8, !tbaa !16
  %93 = fneg double %92
  %94 = load ptr, ptr %8, align 8, !tbaa !3
  %95 = load i32, ptr %15, align 4, !tbaa !10
  %96 = sext i32 %95 to i64
  %97 = getelementptr inbounds ptr, ptr %94, i64 %96
  %98 = load ptr, ptr %97, align 8, !tbaa !14
  %99 = load ptr, ptr %8, align 8, !tbaa !3
  %100 = load i32, ptr %10, align 4, !tbaa !10
  %101 = sext i32 %100 to i64
  %102 = getelementptr inbounds ptr, ptr %99, i64 %101
  %103 = load ptr, ptr %102, align 8, !tbaa !14
  call void @N_VLinearSum(double noundef 1.000000e+00, ptr noundef %83, double noundef %93, ptr noundef %98, ptr noundef %103)
  br label %104

104:                                              ; preds = %78
  %105 = load i32, ptr %15, align 4, !tbaa !10
  %106 = add nsw i32 %105, 1
  store i32 %106, ptr %15, align 4, !tbaa !10
  br label %74, !llvm.loop !22

107:                                              ; preds = %74
  %108 = load ptr, ptr %8, align 8, !tbaa !3
  %109 = load i32, ptr %10, align 4, !tbaa !10
  %110 = sext i32 %109 to i64
  %111 = getelementptr inbounds ptr, ptr %108, i64 %110
  %112 = load ptr, ptr %111, align 8, !tbaa !14
  %113 = load ptr, ptr %8, align 8, !tbaa !3
  %114 = load i32, ptr %10, align 4, !tbaa !10
  %115 = sext i32 %114 to i64
  %116 = getelementptr inbounds ptr, ptr %113, i64 %115
  %117 = load ptr, ptr %116, align 8, !tbaa !14
  %118 = call double @N_VDotProd(ptr noundef %112, ptr noundef %117)
  %119 = call double @SUNRsqrt(double noundef %118)
  %120 = load ptr, ptr %12, align 8, !tbaa !12
  store double %119, ptr %120, align 8, !tbaa !16
  %121 = load ptr, ptr %12, align 8, !tbaa !12
  %122 = load double, ptr %121, align 8, !tbaa !16
  %123 = fmul double 1.000000e+03, %122
  %124 = load double, ptr %18, align 8, !tbaa !16
  %125 = fcmp olt double %123, %124
  br i1 %125, label %126, label %245

126:                                              ; preds = %107
  %127 = load i32, ptr %17, align 4, !tbaa !10
  store i32 %127, ptr %15, align 4, !tbaa !10
  br label %128

128:                                              ; preds = %148, %126
  %129 = load i32, ptr %15, align 4, !tbaa !10
  %130 = load i32, ptr %10, align 4, !tbaa !10
  %131 = icmp slt i32 %129, %130
  br i1 %131, label %132, label %151

132:                                              ; preds = %128
  %133 = load ptr, ptr %8, align 8, !tbaa !3
  %134 = load i32, ptr %15, align 4, !tbaa !10
  %135 = sext i32 %134 to i64
  %136 = getelementptr inbounds ptr, ptr %133, i64 %135
  %137 = load ptr, ptr %136, align 8, !tbaa !14
  %138 = load ptr, ptr %8, align 8, !tbaa !3
  %139 = load i32, ptr %10, align 4, !tbaa !10
  %140 = sext i32 %139 to i64
  %141 = getelementptr inbounds ptr, ptr %138, i64 %140
  %142 = load ptr, ptr %141, align 8, !tbaa !14
  %143 = call double @N_VDotProd(ptr noundef %137, ptr noundef %142)
  %144 = load ptr, ptr %14, align 8, !tbaa !12
  %145 = load i32, ptr %15, align 4, !tbaa !10
  %146 = sext i32 %145 to i64
  %147 = getelementptr inbounds double, ptr %144, i64 %146
  store double %143, ptr %147, align 8, !tbaa !16
  br label %148

148:                                              ; preds = %132
  %149 = load i32, ptr %15, align 4, !tbaa !10
  %150 = add nsw i32 %149, 1
  store i32 %150, ptr %15, align 4, !tbaa !10
  br label %128, !llvm.loop !23

151:                                              ; preds = %128
  %152 = load i32, ptr %17, align 4, !tbaa !10
  %153 = load i32, ptr %10, align 4, !tbaa !10
  %154 = icmp slt i32 %152, %153
  br i1 %154, label %155, label %182

155:                                              ; preds = %151
  %156 = load ptr, ptr %14, align 8, !tbaa !12
  %157 = load i32, ptr %17, align 4, !tbaa !10
  %158 = sext i32 %157 to i64
  %159 = getelementptr inbounds double, ptr %156, i64 %158
  %160 = load double, ptr %159, align 8, !tbaa !16
  %161 = load ptr, ptr %8, align 8, !tbaa !3
  %162 = load i32, ptr %17, align 4, !tbaa !10
  %163 = sext i32 %162 to i64
  %164 = getelementptr inbounds ptr, ptr %161, i64 %163
  %165 = load ptr, ptr %164, align 8, !tbaa !14
  %166 = load ptr, ptr %13, align 8, !tbaa !14
  call void @N_VScale(double noundef %160, ptr noundef %165, ptr noundef %166)
  %167 = load ptr, ptr %14, align 8, !tbaa !12
  %168 = load i32, ptr %17, align 4, !tbaa !10
  %169 = sext i32 %168 to i64
  %170 = getelementptr inbounds double, ptr %167, i64 %169
  %171 = load double, ptr %170, align 8, !tbaa !16
  %172 = load ptr, ptr %9, align 8, !tbaa !8
  %173 = load i32, ptr %17, align 4, !tbaa !10
  %174 = sext i32 %173 to i64
  %175 = getelementptr inbounds ptr, ptr %172, i64 %174
  %176 = load ptr, ptr %175, align 8, !tbaa !12
  %177 = load i32, ptr %16, align 4, !tbaa !10
  %178 = sext i32 %177 to i64
  %179 = getelementptr inbounds double, ptr %176, i64 %178
  %180 = load double, ptr %179, align 8, !tbaa !16
  %181 = fadd double %180, %171
  store double %181, ptr %179, align 8, !tbaa !16
  br label %182

182:                                              ; preds = %155, %151
  %183 = load i32, ptr %17, align 4, !tbaa !10
  %184 = add nsw i32 %183, 1
  store i32 %184, ptr %15, align 4, !tbaa !10
  br label %185

185:                                              ; preds = %217, %182
  %186 = load i32, ptr %15, align 4, !tbaa !10
  %187 = load i32, ptr %10, align 4, !tbaa !10
  %188 = icmp slt i32 %186, %187
  br i1 %188, label %189, label %220

189:                                              ; preds = %185
  %190 = load ptr, ptr %14, align 8, !tbaa !12
  %191 = load i32, ptr %15, align 4, !tbaa !10
  %192 = sext i32 %191 to i64
  %193 = getelementptr inbounds double, ptr %190, i64 %192
  %194 = load double, ptr %193, align 8, !tbaa !16
  %195 = load ptr, ptr %8, align 8, !tbaa !3
  %196 = load i32, ptr %15, align 4, !tbaa !10
  %197 = sext i32 %196 to i64
  %198 = getelementptr inbounds ptr, ptr %195, i64 %197
  %199 = load ptr, ptr %198, align 8, !tbaa !14
  %200 = load ptr, ptr %13, align 8, !tbaa !14
  %201 = load ptr, ptr %13, align 8, !tbaa !14
  call void @N_VLinearSum(double noundef %194, ptr noundef %199, double noundef 1.000000e+00, ptr noundef %200, ptr noundef %201)
  %202 = load ptr, ptr %14, align 8, !tbaa !12
  %203 = load i32, ptr %15, align 4, !tbaa !10
  %204 = sext i32 %203 to i64
  %205 = getelementptr inbounds double, ptr %202, i64 %204
  %206 = load double, ptr %205, align 8, !tbaa !16
  %207 = load ptr, ptr %9, align 8, !tbaa !8
  %208 = load i32, ptr %15, align 4, !tbaa !10
  %209 = sext i32 %208 to i64
  %210 = getelementptr inbounds ptr, ptr %207, i64 %209
  %211 = load ptr, ptr %210, align 8, !tbaa !12
  %212 = load i32, ptr %16, align 4, !tbaa !10
  %213 = sext i32 %212 to i64
  %214 = getelementptr inbounds double, ptr %211, i64 %213
  %215 = load double, ptr %214, align 8, !tbaa !16
  %216 = fadd double %215, %206
  store double %216, ptr %214, align 8, !tbaa !16
  br label %217

217:                                              ; preds = %189
  %218 = load i32, ptr %15, align 4, !tbaa !10
  %219 = add nsw i32 %218, 1
  store i32 %219, ptr %15, align 4, !tbaa !10
  br label %185, !llvm.loop !24

220:                                              ; preds = %185
  %221 = load ptr, ptr %8, align 8, !tbaa !3
  %222 = load i32, ptr %10, align 4, !tbaa !10
  %223 = sext i32 %222 to i64
  %224 = getelementptr inbounds ptr, ptr %221, i64 %223
  %225 = load ptr, ptr %224, align 8, !tbaa !14
  %226 = load ptr, ptr %13, align 8, !tbaa !14
  %227 = load ptr, ptr %8, align 8, !tbaa !3
  %228 = load i32, ptr %10, align 4, !tbaa !10
  %229 = sext i32 %228 to i64
  %230 = getelementptr inbounds ptr, ptr %227, i64 %229
  %231 = load ptr, ptr %230, align 8, !tbaa !14
  call void @N_VLinearSum(double noundef 1.000000e+00, ptr noundef %225, double noundef -1.000000e+00, ptr noundef %226, ptr noundef %231)
  %232 = load ptr, ptr %8, align 8, !tbaa !3
  %233 = load i32, ptr %10, align 4, !tbaa !10
  %234 = sext i32 %233 to i64
  %235 = getelementptr inbounds ptr, ptr %232, i64 %234
  %236 = load ptr, ptr %235, align 8, !tbaa !14
  %237 = load ptr, ptr %8, align 8, !tbaa !3
  %238 = load i32, ptr %10, align 4, !tbaa !10
  %239 = sext i32 %238 to i64
  %240 = getelementptr inbounds ptr, ptr %237, i64 %239
  %241 = load ptr, ptr %240, align 8, !tbaa !14
  %242 = call double @N_VDotProd(ptr noundef %236, ptr noundef %241)
  %243 = call double @SUNRsqrt(double noundef %242)
  %244 = load ptr, ptr %12, align 8, !tbaa !12
  store double %243, ptr %244, align 8, !tbaa !16
  br label %245

245:                                              ; preds = %220, %107
  call void @llvm.lifetime.end.p0(i64 8, ptr %18) #4
  call void @llvm.lifetime.end.p0(i64 4, ptr %17) #4
  call void @llvm.lifetime.end.p0(i64 4, ptr %16) #4
  call void @llvm.lifetime.end.p0(i64 4, ptr %15) #4
  ret i32 0
}