; Function Attrs: nounwind uwtable
define noundef i32 @ClassicalGS(ptr noundef readonly captures(none) %0, ptr noundef readonly captures(none) %1, i32 noundef %2, i32 noundef %3, ptr noundef writeonly captures(none) %4, ptr noundef %5, ptr noundef captures(none) %6) local_unnamed_addr #0 {
  %8 = add nsw i32 %2, -1
  %9 = sext i32 %2 to i64
  %10 = getelementptr inbounds ptr, ptr %0, i64 %9
  %11 = load ptr, ptr %10, align 8, !tbaa !3
  %12 = tail call double @N_VDotProd(ptr noundef %11, ptr noundef %11) #5
  %13 = tail call double @SUNRsqrt(double noundef %12) #5
  %14 = sub nsw i32 %2, %3
  %15 = tail call i32 @llvm.smax.i32(i32 %14, i32 0)
  %16 = icmp slt i32 %15, %2
  br i1 %16, label %.lr.ph, label %._crit_edge

.lr.ph:                                           ; preds = %7
  %17 = zext nneg i32 %8 to i64
  %18 = zext nneg i32 %15 to i64
  %wide.trip.count = zext nneg i32 %2 to i64
  br label %21

.lr.ph91:                                         ; preds = %21
  %19 = zext nneg i32 %8 to i64
  %20 = zext nneg i32 %15 to i64
  %wide.trip.count104 = zext nneg i32 %2 to i64
  br label %29

21:                                               ; preds = %.lr.ph, %21
  %indvars.iv = phi i64 [ %18, %.lr.ph ], [ %indvars.iv.next, %21 ]
  %22 = getelementptr inbounds nuw ptr, ptr %0, i64 %indvars.iv
  %23 = load ptr, ptr %22, align 8, !tbaa !3
  %24 = load ptr, ptr %10, align 8, !tbaa !3
  %25 = tail call double @N_VDotProd(ptr noundef %23, ptr noundef %24) #5
  %26 = getelementptr inbounds nuw ptr, ptr %1, i64 %indvars.iv
  %27 = load ptr, ptr %26, align 8, !tbaa !8
  %28 = getelementptr inbounds nuw double, ptr %27, i64 %17
  store double %25, ptr %28, align 8, !tbaa !10
  %indvars.iv.next = add nuw nsw i64 %indvars.iv, 1
  %exitcond.not = icmp eq i64 %indvars.iv.next, %wide.trip.count
  br i1 %exitcond.not, label %.lr.ph91, label %21, !llvm.loop !15

29:                                               ; preds = %.lr.ph91, %29
  %indvars.iv101 = phi i64 [ %20, %.lr.ph91 ], [ %indvars.iv.next102, %29 ]
  %30 = load ptr, ptr %10, align 8, !tbaa !3
  %31 = getelementptr inbounds nuw ptr, ptr %1, i64 %indvars.iv101
  %32 = load ptr, ptr %31, align 8, !tbaa !8
  %33 = getelementptr inbounds nuw double, ptr %32, i64 %19
  %34 = load double, ptr %33, align 8, !tbaa !10
  %35 = fneg double %34
  %36 = getelementptr inbounds nuw ptr, ptr %0, i64 %indvars.iv101
  %37 = load ptr, ptr %36, align 8, !tbaa !3
  tail call void @N_VLinearSum(double noundef 1.000000e+00, ptr noundef %30, double noundef %35, ptr noundef %37, ptr noundef %30) #5
  %indvars.iv.next102 = add nuw nsw i64 %indvars.iv101, 1
  %exitcond105.not = icmp eq i64 %indvars.iv.next102, %wide.trip.count104
  br i1 %exitcond105.not, label %._crit_edge, label %29, !llvm.loop !16

._crit_edge:                                      ; preds = %29, %7
  %38 = load ptr, ptr %10, align 8, !tbaa !3
  %39 = tail call double @N_VDotProd(ptr noundef %38, ptr noundef %38) #5
  %40 = tail call double @SUNRsqrt(double noundef %39) #5
  store double %40, ptr %4, align 8, !tbaa !10
  %41 = fmul double %40, 1.000000e+03
  %42 = fcmp olt double %41, %13
  br i1 %42, label %.preheader, label %81

.preheader:                                       ; preds = %._crit_edge
  br i1 %16, label %.lr.ph93.preheader, label %._crit_edge94.thread

.lr.ph93.preheader:                               ; preds = %.preheader
  %43 = zext nneg i32 %15 to i64
  %wide.trip.count109 = zext nneg i32 %2 to i64
  br label %.lr.ph93

.lr.ph93:                                         ; preds = %.lr.ph93.preheader, %.lr.ph93
  %indvars.iv106 = phi i64 [ %43, %.lr.ph93.preheader ], [ %indvars.iv.next107, %.lr.ph93 ]
  %44 = getelementptr inbounds nuw ptr, ptr %0, i64 %indvars.iv106
  %45 = load ptr, ptr %44, align 8, !tbaa !3
  %46 = load ptr, ptr %10, align 8, !tbaa !3
  %47 = tail call double @N_VDotProd(ptr noundef %45, ptr noundef %46) #5
  %48 = getelementptr inbounds nuw double, ptr %6, i64 %indvars.iv106
  store double %47, ptr %48, align 8, !tbaa !10
  %indvars.iv.next107 = add nuw nsw i64 %indvars.iv106, 1
  %exitcond110.not = icmp eq i64 %indvars.iv.next107, %wide.trip.count109
  br i1 %exitcond110.not, label %._crit_edge94, label %.lr.ph93, !llvm.loop !17

._crit_edge94:                                    ; preds = %.lr.ph93
  %49 = zext nneg i32 %15 to i64
  %50 = getelementptr inbounds nuw double, ptr %6, i64 %49
  %51 = load double, ptr %50, align 8, !tbaa !10
  %52 = getelementptr inbounds nuw ptr, ptr %0, i64 %49
  %53 = load ptr, ptr %52, align 8, !tbaa !3
  tail call void @N_VScale(double noundef %51, ptr noundef %53, ptr noundef %5) #5
  %54 = load double, ptr %50, align 8, !tbaa !10
  %55 = getelementptr inbounds nuw ptr, ptr %1, i64 %49
  %56 = load ptr, ptr %55, align 8, !tbaa !8
  %57 = zext nneg i32 %8 to i64
  %58 = getelementptr inbounds nuw double, ptr %56, i64 %57
  %59 = load double, ptr %58, align 8, !tbaa !10
  %60 = fadd double %54, %59
  store double %60, ptr %58, align 8, !tbaa !10
  br label %._crit_edge94.thread

._crit_edge94.thread:                             ; preds = %.preheader, %._crit_edge94
  %.395 = add nuw nsw i32 %15, 1
  %61 = icmp slt i32 %.395, %2
  br i1 %61, label %.lr.ph98, label %._crit_edge99

.lr.ph98:                                         ; preds = %._crit_edge94.thread
  %62 = sext i32 %8 to i64
  %narrow = add nuw i32 %15, 1
  %63 = zext i32 %narrow to i64
  br label %64

64:                                               ; preds = %.lr.ph98, %64
  %indvars.iv111 = phi i64 [ %63, %.lr.ph98 ], [ %indvars.iv.next112, %64 ]
  %65 = getelementptr inbounds nuw double, ptr %6, i64 %indvars.iv111
  %66 = load double, ptr %65, align 8, !tbaa !10
  %67 = getelementptr inbounds nuw ptr, ptr %0, i64 %indvars.iv111
  %68 = load ptr, ptr %67, align 8, !tbaa !3
  tail call void @N_VLinearSum(double noundef %66, ptr noundef %68, double noundef 1.000000e+00, ptr noundef %5, ptr noundef %5) #5
  %69 = load double, ptr %65, align 8, !tbaa !10
  %70 = getelementptr inbounds nuw ptr, ptr %1, i64 %indvars.iv111
  %71 = load ptr, ptr %70, align 8, !tbaa !8
  %72 = getelementptr inbounds double, ptr %71, i64 %62
  %73 = load double, ptr %72, align 8, !tbaa !10
  %74 = fadd double %69, %73
  store double %74, ptr %72, align 8, !tbaa !10
  %indvars.iv.next112 = add nuw nsw i64 %indvars.iv111, 1
  %75 = trunc nuw i64 %indvars.iv.next112 to i32
  %76 = icmp sgt i32 %2, %75
  br i1 %76, label %64, label %._crit_edge99, !llvm.loop !18

._crit_edge99:                                    ; preds = %64, %._crit_edge94.thread
  %77 = load ptr, ptr %10, align 8, !tbaa !3
  tail call void @N_VLinearSum(double noundef 1.000000e+00, ptr noundef %77, double noundef -1.000000e+00, ptr noundef %5, ptr noundef %77) #5
  %78 = load ptr, ptr %10, align 8, !tbaa !3
  %79 = tail call double @N_VDotProd(ptr noundef %78, ptr noundef %78) #5
  %80 = tail call double @SUNRsqrt(double noundef %79) #5
  store double %80, ptr %4, align 8, !tbaa !10
  br label %81

81:                                               ; preds = %._crit_edge99, %._crit_edge
  ret i32 0
}